; Function Attrs: mustprogress uwtable
define noundef zeroext i1 @_ZN32pxrInternal_v0_24__pxrReserved__14UsdGeomPrimvar18IsValidPrimvarNameERKNS_7TfTokenE(ptr nocapture noundef nonnull readonly align 8 dereferenceable(8) %0) local_unnamed_addr #1 align 2 personality ptr @__gxx_personality_v0 {
  %2 = load ptr, ptr %0, align 8
  %3 = ptrtoint ptr %2 to i64
  %4 = and i64 %3, -8
  %.not.i.i = icmp eq i64 %4, 0
  br i1 %.not.i.i, label %8, label %5

5:                                                ; preds = %1
  %6 = inttoptr i64 %4 to ptr
  %7 = getelementptr inbounds nuw i8, ptr %6, i64 16
  br label %_ZNK32pxrInternal_v0_24__pxrReserved__7TfTokencvRKNSt7__cxx1112basic_stringIcSt11char_traitsIcESaIcEEEEv.exit

8:                                                ; preds = %1
  %9 = tail call noundef nonnull align 8 dereferenceable(32) ptr @_ZN32pxrInternal_v0_24__pxrReserved__7TfToken15_GetEmptyStringB5cxx11Ev()
  br label %_ZNK32pxrInternal_v0_24__pxrReserved__7TfTokencvRKNSt7__cxx1112basic_stringIcSt11char_traitsIcESaIcEEEEv.exit

_ZNK32pxrInternal_v0_24__pxrReserved__7TfTokencvRKNSt7__cxx1112basic_stringIcSt11char_traitsIcESaIcEEEEv.exit: ; preds = %5, %8
  %10 = phi ptr [ %7, %5 ], [ %9, %8 ]
  %11 = tail call fastcc noundef ptr @_ZNK32pxrInternal_v0_24__pxrReserved__12TfStaticDataINS_12_GLOBAL__N_130_tokens_PrivateStaticTokenTypeENS_27Tf_StaticDataDefaultFactoryIS2_EEEptEv()
  %12 = load ptr, ptr %11, align 8
  %13 = ptrtoint ptr %12 to i64
  %14 = and i64 %13, -8
  %.not.i.i2 = icmp eq i64 %14, 0
  br i1 %.not.i.i2, label %18, label %15

15:                                               ; preds = %_ZNK32pxrInternal_v0_24__pxrReserved__7TfTokencvRKNSt7__cxx1112basic_stringIcSt11char_traitsIcESaIcEEEEv.exit
  %16 = inttoptr i64 %14 to ptr
  %17 = getelementptr inbounds nuw i8, ptr %16, i64 16
  br label %_ZNK32pxrInternal_v0_24__pxrReserved__7TfTokencvRKNSt7__cxx1112basic_stringIcSt11char_traitsIcESaIcEEEEv.exit3

18:                                               ; preds = %_ZNK32pxrInternal_v0_24__pxrReserved__7TfTokencvRKNSt7__cxx1112basic_stringIcSt11char_traitsIcESaIcEEEEv.exit
  %19 = tail call noundef nonnull align 8 dereferenceable(32) ptr @_ZN32pxrInternal_v0_24__pxrReserved__7TfToken15_GetEmptyStringB5cxx11Ev()
  br label %_ZNK32pxrInternal_v0_24__pxrReserved__7TfTokencvRKNSt7__cxx1112basic_stringIcSt11char_traitsIcESaIcEEEEv.exit3

_ZNK32pxrInternal_v0_24__pxrReserved__7TfTokencvRKNSt7__cxx1112basic_stringIcSt11char_traitsIcESaIcEEEEv.exit3: ; preds = %15, %18
  %20 = phi ptr [ %17, %15 ], [ %19, %18 ]
  %21 = tail call noundef ptr @_ZNKSt7__cxx1112basic_stringIcSt11char_traitsIcESaIcEE5c_strEv(ptr noundef nonnull align 8 dereferenceable(32) %20) #18
  %22 = tail call noundef ptr @_ZNKSt7__cxx1112basic_stringIcSt11char_traitsIcESaIcEE5c_strEv(ptr noundef nonnull align 8 dereferenceable(32) %10) #18
  %23 = tail call noundef i64 @_ZNKSt7__cxx1112basic_stringIcSt11char_traitsIcESaIcEE6lengthEv(ptr noundef nonnull align 8 dereferenceable(32) %10) #18
  %24 = tail call i64 @strlen(ptr noundef nonnull dereferenceable(1) %21) #19
  %.not.i.i.i = icmp ult i64 %23, %24
  br i1 %.not.i.i.i, label %_ZN32pxrInternal_v0_24__pxrReserved__18TfStringStartsWithERKNSt7__cxx1112basic_stringIcSt11char_traitsIcESaIcEEES7_.exit.thread, label %_ZN32pxrInternal_v0_24__pxrReserved__18TfStringStartsWithERKNSt7__cxx1112basic_stringIcSt11char_traitsIcESaIcEEES7_.exit

_ZN32pxrInternal_v0_24__pxrReserved__18TfStringStartsWithERKNSt7__cxx1112basic_stringIcSt11char_traitsIcESaIcEEES7_.exit: ; preds = %_ZNK32pxrInternal_v0_24__pxrReserved__7TfTokencvRKNSt7__cxx1112basic_stringIcSt11char_traitsIcESaIcEEEEv.exit3
  %25 = tail call i32 @strncmp(ptr noundef %22, ptr noundef %21, i64 noundef %24) #19
  %26 = icmp eq i32 %25, 0
  br i1 %26, label %27, label %_ZN32pxrInternal_v0_24__pxrReserved__18TfStringStartsWithERKNSt7__cxx1112basic_stringIcSt11char_traitsIcESaIcEEES7_.exit.thread

27:                                               ; preds = %_ZN32pxrInternal_v0_24__pxrReserved__18TfStringStartsWithERKNSt7__cxx1112basic_stringIcSt11char_traitsIcESaIcEEES7_.exit
  %28 = load ptr, ptr %0, align 8
  %29 = ptrtoint ptr %28 to i64
  %30 = and i64 %29, -8
  %.not.i.i4 = icmp eq i64 %30, 0
  br i1 %.not.i.i4, label %34, label %31

31:                                               ; preds = %27
  %32 = inttoptr i64 %30 to ptr
  %33 = getelementptr inbounds nuw i8, ptr %32, i64 16
  br label %_ZNK32pxrInternal_v0_24__pxrReserved__7TfTokencvRKNSt7__cxx1112basic_stringIcSt11char_traitsIcESaIcEEEEv.exit5

34:                                               ; preds = %27
  %35 = tail call noundef nonnull align 8 dereferenceable(32) ptr @_ZN32pxrInternal_v0_24__pxrReserved__7TfToken15_GetEmptyStringB5cxx11Ev()
  br label %_ZNK32pxrInternal_v0_24__pxrReserved__7TfTokencvRKNSt7__cxx1112basic_stringIcSt11char_traitsIcESaIcEEEEv.exit5

_ZNK32pxrInternal_v0_24__pxrReserved__7TfTokencvRKNSt7__cxx1112basic_stringIcSt11char_traitsIcESaIcEEEEv.exit5: ; preds = %31, %34
  %36 = phi ptr [ %33, %31 ], [ %35, %34 ]
  %37 = tail call fastcc noundef ptr @_ZNK32pxrInternal_v0_24__pxrReserved__12TfStaticDataINS_12_GLOBAL__N_130_tokens_PrivateStaticTokenTypeENS_27Tf_StaticDataDefaultFactoryIS2_EEEptEv()
  %38 = getelementptr inbounds nuw i8, ptr %37, i64 16
  %39 = load ptr, ptr %38, align 8
  %40 = ptrtoint ptr %39 to i64
  %41 = and i64 %40, -8
  %.not.i.i6 = icmp eq i64 %41, 0
  br i1 %.not.i.i6, label %45, label %42

42:                                               ; preds = %_ZNK32pxrInternal_v0_24__pxrReserved__7TfTokencvRKNSt7__cxx1112basic_stringIcSt11char_traitsIcESaIcEEEEv.exit5
  %43 = inttoptr i64 %41 to ptr
  %44 = getelementptr inbounds nuw i8, ptr %43, i64 16
  br label %_ZNK32pxrInternal_v0_24__pxrReserved__7TfTokencvRKNSt7__cxx1112basic_stringIcSt11char_traitsIcESaIcEEEEv.exit7

45:                                               ; preds = %_ZNK32pxrInternal_v0_24__pxrReserved__7TfTokencvRKNSt7__cxx1112basic_stringIcSt11char_traitsIcESaIcEEEEv.exit5
  %46 = tail call noundef nonnull align 8 dereferenceable(32) ptr @_ZN32pxrInternal_v0_24__pxrReserved__7TfToken15_GetEmptyStringB5cxx11Ev()
  br label %_ZNK32pxrInternal_v0_24__pxrReserved__7TfTokencvRKNSt7__cxx1112basic_stringIcSt11char_traitsIcESaIcEEEEv.exit7

_ZNK32pxrInternal_v0_24__pxrReserved__7TfTokencvRKNSt7__cxx1112basic_stringIcSt11char_traitsIcESaIcEEEEv.exit7: ; preds = %42, %45
  %47 = phi ptr [ %44, %42 ], [ %46, %45 ]
  %48 = tail call noundef ptr @_ZNKSt7__cxx1112basic_stringIcSt11char_traitsIcESaIcEE5c_strEv(ptr noundef nonnull align 8 dereferenceable(32) %47) #18
  %49 = tail call noundef ptr @_ZNKSt7__cxx1112basic_stringIcSt11char_traitsIcESaIcEE5c_strEv(ptr noundef nonnull align 8 dereferenceable(32) %36) #18
  %50 = tail call noundef i64 @_ZNKSt7__cxx1112basic_stringIcSt11char_traitsIcESaIcEE6lengthEv(ptr noundef nonnull align 8 dereferenceable(32) %36) #18
  %51 = tail call i64 @strlen(ptr noundef nonnull dereferenceable(1) %48) #19
  %.not.i.i.i8 = icmp ult i64 %50, %51
  br i1 %.not.i.i.i8, label %_ZN32pxrInternal_v0_24__pxrReserved__18TfStringStartsWithERKNSt7__cxx1112basic_stringIcSt11char_traitsIcESaIcEEES7_.exit.thread, label %52

52:                                               ; preds = %_ZNK32pxrInternal_v0_24__pxrReserved__7TfTokencvRKNSt7__cxx1112basic_stringIcSt11char_traitsIcESaIcEEEEv.exit7
  %53 = sub nuw i64 %50, %51
  %54 = getelementptr inbounds i8, ptr %49, i64 %53
  %55 = tail call i32 @strcmp(ptr noundef nonnull dereferenceable(1) %54, ptr noundef nonnull dereferenceable(1) %48) #19
  %56 = icmp ne i32 %55, 0
  br label %_ZN32pxrInternal_v0_24__pxrReserved__18TfStringStartsWithERKNSt7__cxx1112basic_stringIcSt11char_traitsIcESaIcEEES7_.exit.thread

_ZN32pxrInternal_v0_24__pxrReserved__18TfStringStartsWithERKNSt7__cxx1112basic_stringIcSt11char_traitsIcESaIcEEES7_.exit.thread: ; preds = %52, %_ZNK32pxrInternal_v0_24__pxrReserved__7TfTokencvRKNSt7__cxx1112basic_stringIcSt11char_traitsIcESaIcEEEEv.exit7, %_ZNK32pxrInternal_v0_24__pxrReserved__7TfTokencvRKNSt7__cxx1112basic_stringIcSt11char_traitsIcESaIcEEEEv.exit3, %_ZN32pxrInternal_v0_24__pxrReserved__18TfStringStartsWithERKNSt7__cxx1112basic_stringIcSt11char_traitsIcESaIcEEES7_.exit
  %57 = phi i1 [ false, %_ZN32pxrInternal_v0_24__pxrReserved__18TfStringStartsWithERKNSt7__cxx1112basic_stringIcSt11char_traitsIcESaIcEEES7_.exit ], [ false, %_ZNK32pxrInternal_v0_24__pxrReserved__7TfTokencvRKNSt7__cxx1112basic_stringIcSt11char_traitsIcESaIcEEEEv.exit3 ], [ true, %_ZNK32pxrInternal_v0_24__pxrReserved__7TfTokencvRKNSt7__cxx1112basic_stringIcSt11char_traitsIcESaIcEEEEv.exit7 ], [ %56, %52 ]
  ret i1 %57
}